target datalayout = "e-m:e-p270:32:32-p271:32:32-p272:64:64-i64:64-i128:128-f80:128-n8:16:32:64-S128"
target triple = "x86_64-pc-linux-gnu"

%struct.Aig_Obj_t_ = type { %union.anon, ptr, ptr, i64, i32, i32, %union.anon.0 }
%union.anon = type { ptr }
%union.anon.0 = type { ptr }
%struct.Aig_Man_t_ = type { ptr, ptr, ptr, ptr, ptr, ptr, ptr, %struct.Aig_Obj_t_, i32, i32, i32, i32, i32, i32, [7 x i32], i32, ptr, i32, ptr, i32, ptr, i32, i32, i32, ptr, i32, i32, i32, i32, i32, ptr, ptr, i32, ptr, ptr, i32, ptr, ptr, i32, i32, i32, ptr, ptr, ptr, ptr, ptr, ptr, ptr, ptr, ptr, ptr, ptr, ptr, ptr, ptr, i32, ptr, ptr, ptr, ptr, i32, i64, i64, i64, ptr, ptr }
%struct.Vec_Ptr_t_ = type { i32, i32, ptr }
%struct.DdManager = type { %struct.DdNode, ptr, ptr, ptr, ptr, ptr, ptr, ptr, i32, i32, double, double, double, i32, i32, i32, i32, i32, i32, ptr, ptr, %struct.DdSubtable, i32, i32, i32, i32, i32, i32, i32, double, i32, i32, i32, ptr, i64, double, i32, ptr, ptr, ptr, ptr, ptr, ptr, ptr, i32, ptr, ptr, ptr, ptr, ptr, ptr, i32, i32, i32, double, i32, i32, i32, i32, double, double, i32, i32, i32, i32, i32, i32, i32, i32, i32, ptr, ptr, i32, i32, i32, i32, i32, i32, ptr, ptr, ptr, ptr, ptr, ptr, ptr, ptr, i32, i64, i64, i64, i32, i64, i64, double, double, double, double, double, double, i32, ptr, ptr, i64 }
%struct.DdNode = type { i32, i32, ptr, %union.anon.1, i64 }
%union.anon.1 = type { %struct.DdChildren }
%struct.DdChildren = type { ptr, ptr }
%struct.DdSubtable = type { ptr, i32, i32, i32, i32, i32, i32, i32, i32, i32, i32, i32 }

@.str.1 = private unnamed_addr constant [38 x i8] c"Constructing global BDDs is aborted.\0A\00", align 1

; Function Attrs: inlinehint nounwind uwtable
define internal i32 @Aig_IsComplement(ptr noundef %0) #3 {
  %2 = alloca ptr, align 8
  store ptr %0, ptr %2, align 8, !tbaa !8
  %3 = load ptr, ptr %2, align 8, !tbaa !8
  %4 = ptrtoint ptr %3 to i64
  %5 = and i64 %4, 1
  %6 = trunc i64 %5 to i32
  ret i32 %6
}

; Function Attrs: inlinehint nounwind uwtable
define internal void @Aig_ObjCleanGlobalBdd(ptr noundef %0, ptr noundef %1) #3 {
  %3 = alloca ptr, align 8
  %4 = alloca ptr, align 8
  store ptr %0, ptr %3, align 8, !tbaa !3
  store ptr %1, ptr %4, align 8, !tbaa !8
  %5 = load ptr, ptr %3, align 8, !tbaa !3
  %6 = load ptr, ptr %4, align 8, !tbaa !8
  %7 = getelementptr inbounds nuw %struct.Aig_Obj_t_, ptr %6, i32 0, i32 6
  %8 = load ptr, ptr %7, align 8, !tbaa !20
  call void @Cudd_RecursiveDeref(ptr noundef %5, ptr noundef %8)
  %9 = load ptr, ptr %4, align 8, !tbaa !8
  %10 = getelementptr inbounds nuw %struct.Aig_Obj_t_, ptr %9, i32 0, i32 6
  store ptr null, ptr %10, align 8, !tbaa !20
  ret void
}

; Function Attrs: inlinehint nounwind uwtable
define internal ptr @Aig_ObjGlobalBdd(ptr noundef %0) #3 {
  %2 = alloca ptr, align 8
  store ptr %0, ptr %2, align 8, !tbaa !8
  %3 = load ptr, ptr %2, align 8, !tbaa !8
  %4 = getelementptr inbounds nuw %struct.Aig_Obj_t_, ptr %3, i32 0, i32 6
  %5 = load ptr, ptr %4, align 8, !tbaa !20
  ret ptr %5
}

; Function Attrs: inlinehint nounwind uwtable
define internal ptr @Aig_Regular(ptr noundef %0) #3 {
  %2 = alloca ptr, align 8
  store ptr %0, ptr %2, align 8, !tbaa !8
  %3 = load ptr, ptr %2, align 8, !tbaa !8
  %4 = ptrtoint ptr %3 to i64
  %5 = and i64 %4, -2
  %6 = inttoptr i64 %5 to ptr
  ret ptr %6
}

; Function Attrs: inlinehint nounwind uwtable
define internal i32 @Aig_ObjFaninC0(ptr noundef %0) #3 {
  %2 = alloca ptr, align 8
  store ptr %0, ptr %2, align 8, !tbaa !8
  %3 = load ptr, ptr %2, align 8, !tbaa !8
  %4 = getelementptr inbounds nuw %struct.Aig_Obj_t_, ptr %3, i32 0, i32 1
  %5 = load ptr, ptr %4, align 8, !tbaa !21
  %6 = call i32 @Aig_IsComplement(ptr noundef %5)
  ret i32 %6
}

; Function Attrs: nounwind uwtable
define void @Aig_ManFreeGlobalBdds(ptr noundef %0, ptr noundef %1) #0 {
  %3 = alloca ptr, align 8
  %4 = alloca ptr, align 8
  %5 = alloca ptr, align 8
  %6 = alloca i32, align 4
  store ptr %0, ptr %3, align 8, !tbaa !24
  store ptr %1, ptr %4, align 8, !tbaa !3
  call void @llvm.lifetime.start.p0(i64 8, ptr %5) #7
  call void @llvm.lifetime.start.p0(i64 4, ptr %6) #7
  store i32 0, ptr %6, align 4, !tbaa !10
  br label %7

7:                                                ; preds = %35, %2
  %8 = load i32, ptr %6, align 4, !tbaa !10
  %9 = load ptr, ptr %3, align 8, !tbaa !24
  %10 = getelementptr inbounds nuw %struct.Aig_Man_t_, ptr %9, i32 0, i32 4
  %11 = load ptr, ptr %10, align 8, !tbaa !26
  %12 = call i32 @Vec_PtrSize(ptr noundef %11)
  %13 = icmp slt i32 %8, %12
  br i1 %13, label %14, label %20

14:                                               ; preds = %7
  %15 = load ptr, ptr %3, align 8, !tbaa !24
  %16 = getelementptr inbounds nuw %struct.Aig_Man_t_, ptr %15, i32 0, i32 4
  %17 = load ptr, ptr %16, align 8, !tbaa !26
  %18 = load i32, ptr %6, align 4, !tbaa !10
  %19 = call ptr @Vec_PtrEntry(ptr noundef %17, i32 noundef %18)
  store ptr %19, ptr %5, align 8, !tbaa !8
  br label %20

20:                                               ; preds = %14, %7
  %21 = phi i1 [ false, %7 ], [ true, %14 ]
  br i1 %21, label %22, label %38

22:                                               ; preds = %20
  %23 = load ptr, ptr %5, align 8, !tbaa !8
  %24 = icmp eq ptr %23, null
  br i1 %24, label %25, label %26

25:                                               ; preds = %22
  br label %34

26:                                               ; preds = %22
  %27 = load ptr, ptr %5, align 8, !tbaa !8
  %28 = call ptr @Aig_ObjGlobalBdd(ptr noundef %27)
  %29 = icmp ne ptr %28, null
  br i1 %29, label %30, label %33

30:                                               ; preds = %26
  %31 = load ptr, ptr %4, align 8, !tbaa !3
  %32 = load ptr, ptr %5, align 8, !tbaa !8
  call void @Aig_ObjCleanGlobalBdd(ptr noundef %31, ptr noundef %32)
  br label %33

33:                                               ; preds = %30, %26
  br label %34

34:                                               ; preds = %33, %25
  br label %35

35:                                               ; preds = %34
  %36 = load i32, ptr %6, align 4, !tbaa !10
  %37 = add nsw i32 %36, 1
  store i32 %37, ptr %6, align 4, !tbaa !10
  br label %7, !llvm.loop !35

38:                                               ; preds = %20
  call void @llvm.lifetime.end.p0(i64 4, ptr %6) #7
  call void @llvm.lifetime.end.p0(i64 8, ptr %5) #7
  ret void
}

; Function Attrs: inlinehint nounwind uwtable
define internal ptr @Aig_ObjFanin0(ptr noundef %0) #3 {
  %2 = alloca ptr, align 8
  store ptr %0, ptr %2, align 8, !tbaa !8
  %3 = load ptr, ptr %2, align 8, !tbaa !8
  %4 = getelementptr inbounds nuw %struct.Aig_Obj_t_, ptr %3, i32 0, i32 1
  %5 = load ptr, ptr %4, align 8, !tbaa !21
  %6 = call ptr @Aig_Regular(ptr noundef %5)
  ret ptr %6
}

; Function Attrs: inlinehint nounwind uwtable
define internal ptr @Vec_PtrEntry(ptr noundef %0, i32 noundef %1) #3 {
  %3 = alloca ptr, align 8
  %4 = alloca i32, align 4
  store ptr %0, ptr %3, align 8, !tbaa !37
  store i32 %1, ptr %4, align 4, !tbaa !10
  %5 = load ptr, ptr %3, align 8, !tbaa !37
  %6 = getelementptr inbounds nuw %struct.Vec_Ptr_t_, ptr %5, i32 0, i32 2
  %7 = load ptr, ptr %6, align 8, !tbaa !40
  %8 = load i32, ptr %4, align 4, !tbaa !10
  %9 = sext i32 %8 to i64
  %10 = getelementptr inbounds ptr, ptr %7, i64 %9
  %11 = load ptr, ptr %10, align 8, !tbaa !41
  ret ptr %11
}

; Function Attrs: inlinehint nounwind uwtable
define internal i32 @Vec_PtrSize(ptr noundef %0) #3 {
  %2 = alloca ptr, align 8
  store ptr %0, ptr %2, align 8, !tbaa !37
  %3 = load ptr, ptr %2, align 8, !tbaa !37
  %4 = getelementptr inbounds nuw %struct.Vec_Ptr_t_, ptr %3, i32 0, i32 1
  %5 = load i32, ptr %4, align 4, !tbaa !38
  ret i32 %5
}

; Function Attrs: inlinehint nounwind uwtable
define internal void @Aig_ObjSetGlobalBdd(ptr noundef %0, ptr noundef %1) #3 {
  %3 = alloca ptr, align 8
  %4 = alloca ptr, align 8
  store ptr %0, ptr %3, align 8, !tbaa !8
  store ptr %1, ptr %4, align 8, !tbaa !18
  %5 = load ptr, ptr %4, align 8, !tbaa !18
  %6 = load ptr, ptr %3, align 8, !tbaa !8
  %7 = getelementptr inbounds nuw %struct.Aig_Obj_t_, ptr %6, i32 0, i32 6
  store ptr %5, ptr %7, align 8, !tbaa !20
  ret void
}

; Function Attrs: inlinehint nounwind uwtable
define internal ptr @Aig_ManConst1(ptr noundef %0) #3 {
  %2 = alloca ptr, align 8
  store ptr %0, ptr %2, align 8, !tbaa !24
  %3 = load ptr, ptr %2, align 8, !tbaa !24
  %4 = getelementptr inbounds nuw %struct.Aig_Man_t_, ptr %3, i32 0, i32 6
  %5 = load ptr, ptr %4, align 8, !tbaa !61
  ret ptr %5
}

; Function Attrs: inlinehint nounwind uwtable
define internal i32 @Aig_ManCiNum(ptr noundef %0) #3 {
  %2 = alloca ptr, align 8
  store ptr %0, ptr %2, align 8, !tbaa !24
  %3 = load ptr, ptr %2, align 8, !tbaa !24
  %4 = getelementptr inbounds nuw %struct.Aig_Man_t_, ptr %3, i32 0, i32 14
  %5 = getelementptr inbounds [7 x i32], ptr %4, i64 0, i64 2
  %6 = load i32, ptr %5, align 8, !tbaa !10
  ret i32 %6
}

; Function Attrs: nounwind uwtable
define ptr @Aig_ManComputeGlobalBdds(ptr noundef %0, i32 noundef %1, i32 noundef %2, i32 noundef %3, i32 noundef %4) #0 {
  %6 = alloca ptr, align 8
  %7 = alloca ptr, align 8
  %8 = alloca i32, align 4
  %9 = alloca i32, align 4
  %10 = alloca i32, align 4
  %11 = alloca i32, align 4
  %12 = alloca ptr, align 8
  %13 = alloca ptr, align 8
  %14 = alloca ptr, align 8
  %15 = alloca ptr, align 8
  %16 = alloca i32, align 4
  %17 = alloca i32, align 4
  %18 = alloca i32, align 4
  store ptr %0, ptr %7, align 8, !tbaa !24
  store i32 %1, ptr %8, align 4, !tbaa !10
  store i32 %2, ptr %9, align 4, !tbaa !10
  store i32 %3, ptr %10, align 4, !tbaa !10
  store i32 %4, ptr %11, align 4, !tbaa !10
  call void @llvm.lifetime.start.p0(i64 8, ptr %12) #7
  store ptr null, ptr %12, align 8, !tbaa !12
  call void @llvm.lifetime.start.p0(i64 8, ptr %13) #7
  call void @llvm.lifetime.start.p0(i64 8, ptr %14) #7
  call void @llvm.lifetime.start.p0(i64 8, ptr %15) #7
  call void @llvm.lifetime.start.p0(i64 4, ptr %16) #7
  call void @llvm.lifetime.start.p0(i64 4, ptr %17) #7
  %19 = load ptr, ptr %7, align 8, !tbaa !24
  %20 = call i32 @Aig_ManCiNum(ptr noundef %19)
  %21 = call ptr @Cudd_Init(i32 noundef %20, i32 noundef 0, i32 noundef 256, i32 noundef 262144, i64 noundef 0)
  store ptr %21, ptr %14, align 8, !tbaa !3
  %22 = load i32, ptr %10, align 4, !tbaa !10
  %23 = icmp ne i32 %22, 0
  br i1 %23, label %24, label %26

24:                                               ; preds = %5
  %25 = load ptr, ptr %14, align 8, !tbaa !3
  call void @Cudd_AutodynEnable(ptr noundef %25, i32 noundef 6)
  br label %26

26:                                               ; preds = %24, %5
  %27 = load ptr, ptr %7, align 8, !tbaa !24
  call void @Aig_ManCleanData(ptr noundef %27)
  %28 = load ptr, ptr %7, align 8, !tbaa !24
  %29 = call ptr @Aig_ManConst1(ptr noundef %28)
  %30 = load ptr, ptr %14, align 8, !tbaa !3
  %31 = getelementptr inbounds nuw %struct.DdManager, ptr %30, i32 0, i32 1
  %32 = load ptr, ptr %31, align 8, !tbaa !45
  call void @Aig_ObjSetGlobalBdd(ptr noundef %29, ptr noundef %32)
  %33 = load ptr, ptr %14, align 8, !tbaa !3
  %34 = getelementptr inbounds nuw %struct.DdManager, ptr %33, i32 0, i32 1
  %35 = load ptr, ptr %34, align 8, !tbaa !45
  call void @Cudd_Ref(ptr noundef %35)
  store i32 0, ptr %16, align 4, !tbaa !10
  br label %36

36:                                               ; preds = %67, %26
  %37 = load i32, ptr %16, align 4, !tbaa !10
  %38 = load ptr, ptr %7, align 8, !tbaa !24
  %39 = getelementptr inbounds nuw %struct.Aig_Man_t_, ptr %38, i32 0, i32 2
  %40 = load ptr, ptr %39, align 8, !tbaa !57
  %41 = call i32 @Vec_PtrSize(ptr noundef %40)
  %42 = icmp slt i32 %37, %41
  br i1 %42, label %43, label %49

43:                                               ; preds = %36
  %44 = load ptr, ptr %7, align 8, !tbaa !24
  %45 = getelementptr inbounds nuw %struct.Aig_Man_t_, ptr %44, i32 0, i32 2
  %46 = load ptr, ptr %45, align 8, !tbaa !57
  %47 = load i32, ptr %16, align 4, !tbaa !10
  %48 = call ptr @Vec_PtrEntry(ptr noundef %46, i32 noundef %47)
  store ptr %48, ptr %13, align 8, !tbaa !8
  br label %49

49:                                               ; preds = %43, %36
  %50 = phi i1 [ false, %36 ], [ true, %43 ]
  br i1 %50, label %51, label %70

51:                                               ; preds = %49
  %52 = load ptr, ptr %13, align 8, !tbaa !8
  %53 = load ptr, ptr %14, align 8, !tbaa !3
  %54 = getelementptr inbounds nuw %struct.DdManager, ptr %53, i32 0, i32 41
  %55 = load ptr, ptr %54, align 8, !tbaa !58
  %56 = load i32, ptr %16, align 4, !tbaa !10
  %57 = sext i32 %56 to i64
  %58 = getelementptr inbounds ptr, ptr %55, i64 %57
  %59 = load ptr, ptr %58, align 8, !tbaa !18
  call void @Aig_ObjSetGlobalBdd(ptr noundef %52, ptr noundef %59)
  %60 = load ptr, ptr %14, align 8, !tbaa !3
  %61 = getelementptr inbounds nuw %struct.DdManager, ptr %60, i32 0, i32 41
  %62 = load ptr, ptr %61, align 8, !tbaa !58
  %63 = load i32, ptr %16, align 4, !tbaa !10
  %64 = sext i32 %63 to i64
  %65 = getelementptr inbounds ptr, ptr %62, i64 %64
  %66 = load ptr, ptr %65, align 8, !tbaa !18
  call void @Cudd_Ref(ptr noundef %66)
  br label %67

67:                                               ; preds = %51
  %68 = load i32, ptr %16, align 4, !tbaa !10
  %69 = add nsw i32 %68, 1
  store i32 %69, ptr %16, align 4, !tbaa !10
  br label %36, !llvm.loop !59

70:                                               ; preds = %49
  store i32 0, ptr %17, align 4, !tbaa !10
  store i32 0, ptr %16, align 4, !tbaa !10
  br label %71

71:                                               ; preds = %118, %70
  %72 = load i32, ptr %16, align 4, !tbaa !10
  %73 = load ptr, ptr %7, align 8, !tbaa !24
  %74 = getelementptr inbounds nuw %struct.Aig_Man_t_, ptr %73, i32 0, i32 3
  %75 = load ptr, ptr %74, align 8, !tbaa !42
  %76 = call i32 @Vec_PtrSize(ptr noundef %75)
  %77 = icmp slt i32 %72, %76
  br i1 %77, label %78, label %84

78:                                               ; preds = %71
  %79 = load ptr, ptr %7, align 8, !tbaa !24
  %80 = getelementptr inbounds nuw %struct.Aig_Man_t_, ptr %79, i32 0, i32 3
  %81 = load ptr, ptr %80, align 8, !tbaa !42
  %82 = load i32, ptr %16, align 4, !tbaa !10
  %83 = call ptr @Vec_PtrEntry(ptr noundef %81, i32 noundef %82)
  store ptr %83, ptr %13, align 8, !tbaa !8
  br label %84

84:                                               ; preds = %78, %71
  %85 = phi i1 [ false, %71 ], [ true, %78 ]
  br i1 %85, label %86, label %121

86:                                               ; preds = %84
  %87 = load ptr, ptr %14, align 8, !tbaa !3
  %88 = load ptr, ptr %13, align 8, !tbaa !8
  %89 = call ptr @Aig_ObjFanin0(ptr noundef %88)
  %90 = load i32, ptr %8, align 4, !tbaa !10
  %91 = load i32, ptr %9, align 4, !tbaa !10
  %92 = load ptr, ptr %12, align 8, !tbaa !12
  %93 = load i32, ptr %11, align 4, !tbaa !10
  %94 = call ptr @Bbr_NodeGlobalBdds_rec(ptr noundef %87, ptr noundef %89, i32 noundef %90, i32 noundef %91, ptr noundef %92, ptr noundef %17, i32 noundef %93)
  store ptr %94, ptr %15, align 8, !tbaa !18
  %95 = load ptr, ptr %15, align 8, !tbaa !18
  %96 = icmp eq ptr %95, null
  br i1 %96, label %97, label %107

97:                                               ; preds = %86
  %98 = load i32, ptr %11, align 4, !tbaa !10
  %99 = icmp ne i32 %98, 0
  br i1 %99, label %100, label %102

100:                                              ; preds = %97
  %101 = call i32 (ptr, ...) @printf(ptr noundef @.str.1)
  br label %102

102:                                              ; preds = %100, %97
  %103 = load ptr, ptr %7, align 8, !tbaa !24
  %104 = load ptr, ptr %14, align 8, !tbaa !3
  call void @Aig_ManFreeGlobalBdds(ptr noundef %103, ptr noundef %104)
  %105 = load ptr, ptr %14, align 8, !tbaa !3
  call void @Cudd_Quit(ptr noundef %105)
  %106 = load ptr, ptr %7, align 8, !tbaa !24
  call void @Aig_ManResetRefs(ptr noundef %106)
  store ptr null, ptr %6, align 8
  store i32 1, ptr %18, align 4
  br label %131

107:                                              ; preds = %86
  %108 = load ptr, ptr %15, align 8, !tbaa !18
  %109 = ptrtoint ptr %108 to i64
  %110 = load ptr, ptr %13, align 8, !tbaa !8
  %111 = call i32 @Aig_ObjFaninC0(ptr noundef %110)
  %112 = sext i32 %111 to i64
  %113 = xor i64 %109, %112
  %114 = inttoptr i64 %113 to ptr
  store ptr %114, ptr %15, align 8, !tbaa !18
  %115 = load ptr, ptr %15, align 8, !tbaa !18
  call void @Cudd_Ref(ptr noundef %115)
  %116 = load ptr, ptr %13, align 8, !tbaa !8
  %117 = load ptr, ptr %15, align 8, !tbaa !18
  call void @Aig_ObjSetGlobalBdd(ptr noundef %116, ptr noundef %117)
  br label %118

118:                                              ; preds = %107
  %119 = load i32, ptr %16, align 4, !tbaa !10
  %120 = add nsw i32 %119, 1
  store i32 %120, ptr %16, align 4, !tbaa !10
  br label %71, !llvm.loop !60

121:                                              ; preds = %84
  %122 = load ptr, ptr %7, align 8, !tbaa !24
  call void @Aig_ManResetRefs(ptr noundef %122)
  %123 = load i32, ptr %10, align 4, !tbaa !10
  %124 = icmp ne i32 %123, 0
  br i1 %124, label %125, label %129

125:                                              ; preds = %121
  %126 = load ptr, ptr %14, align 8, !tbaa !3
  %127 = call i32 @Cudd_ReduceHeap(ptr noundef %126, i32 noundef 6, i32 noundef 1)
  %128 = load ptr, ptr %14, align 8, !tbaa !3
  call void @Cudd_AutodynDisable(ptr noundef %128)
  br label %129

129:                                              ; preds = %125, %121
  %130 = load ptr, ptr %14, align 8, !tbaa !3
  store ptr %130, ptr %6, align 8
  store i32 1, ptr %18, align 4
  br label %131

131:                                              ; preds = %129, %102
  call void @llvm.lifetime.end.p0(i64 4, ptr %17) #7
  call void @llvm.lifetime.end.p0(i64 4, ptr %16) #7
  call void @llvm.lifetime.end.p0(i64 8, ptr %15) #7
  call void @llvm.lifetime.end.p0(i64 8, ptr %14) #7
  call void @llvm.lifetime.end.p0(i64 8, ptr %13) #7
  call void @llvm.lifetime.end.p0(i64 8, ptr %12) #7
  %132 = load ptr, ptr %6, align 8
  ret ptr %132
}