; Function Attrs: nounwind uwtable
define ptr @Aig_ManComputeGlobalBdds(ptr noundef %0, i32 noundef %1, i32 noundef %2, i32 noundef %3, i32 noundef %4) local_unnamed_addr #0 {
  %6 = alloca i32, align 4
  call void @llvm.lifetime.start.p0(i64 4, ptr nonnull %6) #8
  %7 = getelementptr i8, ptr %0, i64 136
  %.val54 = load i32, ptr %7, align 8, !tbaa !14
  %8 = tail call ptr @Cudd_Init(i32 noundef %.val54, i32 noundef 0, i32 noundef 256, i32 noundef 262144, i64 noundef 0) #8
  %.not = icmp eq i32 %3, 0
  br i1 %.not, label %10, label %9

9:                                                ; preds = %5
  tail call void @Cudd_AutodynEnable(ptr noundef %8, i32 noundef 6) #8
  br label %10

10:                                               ; preds = %9, %5
  tail call void @Aig_ManCleanData(ptr noundef nonnull %0) #8
  %11 = getelementptr i8, ptr %0, i64 48
  %.val55 = load ptr, ptr %11, align 8, !tbaa !36
  %12 = getelementptr inbounds nuw i8, ptr %8, i64 40
  %13 = load ptr, ptr %12, align 8, !tbaa !37
  %14 = getelementptr inbounds nuw i8, ptr %.val55, i64 40
  store ptr %13, ptr %14, align 8, !tbaa !8
  tail call void @Cudd_Ref(ptr noundef %13) #8
  %15 = getelementptr inbounds nuw i8, ptr %0, i64 16
  %16 = load ptr, ptr %15, align 8, !tbaa !50
  %17 = getelementptr i8, ptr %16, i64 4
  %.val5156 = load i32, ptr %17, align 4, !tbaa !27
  %18 = icmp sgt i32 %.val5156, 0
  br i1 %18, label %.lr.ph, label %.critedge

.lr.ph:                                           ; preds = %10
  %19 = getelementptr inbounds nuw i8, ptr %8, i64 344
  br label %20

20:                                               ; preds = %.lr.ph, %20
  %indvars.iv = phi i64 [ 0, %.lr.ph ], [ %indvars.iv.next, %20 ]
  %21 = phi ptr [ %16, %.lr.ph ], [ %32, %20 ]
  %22 = getelementptr i8, ptr %21, i64 8
  %.val53 = load ptr, ptr %22, align 8, !tbaa !29
  %23 = getelementptr inbounds nuw ptr, ptr %.val53, i64 %indvars.iv
  %24 = load ptr, ptr %23, align 8, !tbaa !30
  %25 = load ptr, ptr %19, align 8, !tbaa !51
  %26 = getelementptr inbounds nuw ptr, ptr %25, i64 %indvars.iv
  %27 = load ptr, ptr %26, align 8, !tbaa !52
  %28 = getelementptr inbounds nuw i8, ptr %24, i64 40
  store ptr %27, ptr %28, align 8, !tbaa !8
  %29 = load ptr, ptr %19, align 8, !tbaa !51
  %30 = getelementptr inbounds nuw ptr, ptr %29, i64 %indvars.iv
  %31 = load ptr, ptr %30, align 8, !tbaa !52
  tail call void @Cudd_Ref(ptr noundef %31) #8
  %indvars.iv.next = add nuw nsw i64 %indvars.iv, 1
  %32 = load ptr, ptr %15, align 8, !tbaa !50
  %33 = getelementptr i8, ptr %32, i64 4
  %.val51 = load i32, ptr %33, align 4, !tbaa !27
  %34 = sext i32 %.val51 to i64
  %35 = icmp slt i64 %indvars.iv.next, %34
  br i1 %35, label %20, label %.critedge, !llvm.loop !53

.critedge:                                        ; preds = %20, %10
  store i32 0, ptr %6, align 4, !tbaa !14
  %36 = getelementptr inbounds nuw i8, ptr %0, i64 24
  %37 = load ptr, ptr %36, align 8, !tbaa !34
  %38 = getelementptr i8, ptr %37, i64 4
  %.val5058 = load i32, ptr %38, align 4, !tbaa !27
  %39 = icmp sgt i32 %.val5058, 0
  br i1 %39, label %.lr.ph60, label %.critedge2

.lr.ph60:                                         ; preds = %.critedge, %70
  %indvars.iv62 = phi i64 [ %indvars.iv.next63, %70 ], [ 0, %.critedge ]
  %40 = phi ptr [ %77, %70 ], [ %37, %.critedge ]
  %41 = getelementptr i8, ptr %40, i64 8
  %.val52 = load ptr, ptr %41, align 8, !tbaa !29
  %42 = getelementptr inbounds nuw ptr, ptr %.val52, i64 %indvars.iv62
  %43 = load ptr, ptr %42, align 8, !tbaa !30
  %44 = getelementptr i8, ptr %43, i64 8
  %.val = load ptr, ptr %44, align 8, !tbaa !9
  %45 = ptrtoint ptr %.val to i64
  %46 = and i64 %45, -2
  %47 = inttoptr i64 %46 to ptr
  %48 = call ptr @Bbr_NodeGlobalBdds_rec(ptr noundef %8, ptr noundef %47, i32 noundef %1, i32 noundef %2, ptr noundef null, ptr noundef nonnull %6, i32 noundef %4)
  %49 = icmp eq ptr %48, null
  br i1 %49, label %50, label %70

50:                                               ; preds = %.lr.ph60
  %.not48 = icmp eq i32 %4, 0
  br i1 %.not48, label %52, label %51

51:                                               ; preds = %50
  %puts = call i32 @puts(ptr nonnull dereferenceable(1) @str)
  br label %52

52:                                               ; preds = %51, %50
  %53 = getelementptr inbounds nuw i8, ptr %0, i64 32
  %54 = load ptr, ptr %53, align 8, !tbaa !15
  %55 = getelementptr i8, ptr %54, i64 4
  %.val911.i = load i32, ptr %55, align 4, !tbaa !27
  %56 = icmp sgt i32 %.val911.i, 0
  br i1 %56, label %.lr.ph.i, label %Aig_ManFreeGlobalBdds.exit

.lr.ph.i:                                         ; preds = %52, %65
  %57 = phi ptr [ %66, %65 ], [ %54, %52 ]
  %indvars.iv.i = phi i64 [ %indvars.iv.next.i, %65 ], [ 0, %52 ]
  %58 = getelementptr i8, ptr %57, i64 8
  %.val10.i = load ptr, ptr %58, align 8, !tbaa !29
  %59 = getelementptr inbounds nuw ptr, ptr %.val10.i, i64 %indvars.iv.i
  %60 = load ptr, ptr %59, align 8, !tbaa !30
  %61 = icmp eq ptr %60, null
  br i1 %61, label %65, label %62

62:                                               ; preds = %.lr.ph.i
  %63 = getelementptr i8, ptr %60, i64 40
  %.val.i = load ptr, ptr %63, align 8, !tbaa !8
  %.not.i = icmp eq ptr %.val.i, null
  br i1 %.not.i, label %65, label %64

64:                                               ; preds = %62
  call void @Cudd_RecursiveDeref(ptr noundef %8, ptr noundef nonnull %.val.i) #8
  store ptr null, ptr %63, align 8, !tbaa !8
  %.pre.i = load ptr, ptr %53, align 8, !tbaa !15
  br label %65

65:                                               ; preds = %64, %62, %.lr.ph.i
  %66 = phi ptr [ %57, %.lr.ph.i ], [ %.pre.i, %64 ], [ %57, %62 ]
  %indvars.iv.next.i = add nuw nsw i64 %indvars.iv.i, 1
  %67 = getelementptr i8, ptr %66, i64 4
  %.val9.i = load i32, ptr %67, align 4, !tbaa !27
  %68 = sext i32 %.val9.i to i64
  %69 = icmp slt i64 %indvars.iv.next.i, %68
  br i1 %69, label %.lr.ph.i, label %Aig_ManFreeGlobalBdds.exit, !llvm.loop !31

Aig_ManFreeGlobalBdds.exit:                       ; preds = %65, %52
  call void @Cudd_Quit(ptr noundef %8) #8
  call void @Aig_ManResetRefs(ptr noundef nonnull %0) #8
  br label %83

70:                                               ; preds = %.lr.ph60
  %71 = ptrtoint ptr %48 to i64
  %.val49 = load ptr, ptr %44, align 8, !tbaa !9
  %72 = ptrtoint ptr %.val49 to i64
  %73 = and i64 %72, 1
  %74 = xor i64 %73, %71
  %75 = inttoptr i64 %74 to ptr
  call void @Cudd_Ref(ptr noundef %75) #8
  %76 = getelementptr inbounds nuw i8, ptr %43, i64 40
  store ptr %75, ptr %76, align 8, !tbaa !8
  %indvars.iv.next63 = add nuw nsw i64 %indvars.iv62, 1
  %77 = load ptr, ptr %36, align 8, !tbaa !34
  %78 = getelementptr i8, ptr %77, i64 4
  %.val50 = load i32, ptr %78, align 4, !tbaa !27
  %79 = sext i32 %.val50 to i64
  %80 = icmp slt i64 %indvars.iv.next63, %79
  br i1 %80, label %.lr.ph60, label %.critedge2, !llvm.loop !54

.critedge2:                                       ; preds = %70, %.critedge
  call void @Aig_ManResetRefs(ptr noundef nonnull %0) #8
  br i1 %.not, label %83, label %81

81:                                               ; preds = %.critedge2
  %82 = call i32 @Cudd_ReduceHeap(ptr noundef %8, i32 noundef 6, i32 noundef 1) #8
  call void @Cudd_AutodynDisable(ptr noundef %8) #8
  br label %83

83:                                               ; preds = %.critedge2, %81, %Aig_ManFreeGlobalBdds.exit
  %.046 = phi ptr [ null, %Aig_ManFreeGlobalBdds.exit ], [ %8, %81 ], [ %8, %.critedge2 ]
  call void @llvm.lifetime.end.p0(i64 4, ptr nonnull %6) #8
  ret ptr %.046
}